(dp0
cnumpy.core.multiarray
scalar
p1
(cnumpy
dtype
p2
(S'i8'
p3
I0
I1
tp4
Rp5
(I3
S'<'
p6
NNNI-1
I-1
I0
tp7
bS'\x00\x00\x00\x00\x00\x00\x00\x00'
p8
tp9
Rp10
(dp11
S'salary'
p12
F201955.0
sS'to_messages'
p13
F2902.0
sS'deferral_payments'
p14
F2869717.0
sS'total_payments'
p15
F4484442.0
sS'long_term_incentive'
p16
F304805.0
sS'loan_advances'
p17
F0.0
sS'bonus'
p18
F4175000.0
sS'restricted_stock_deferred'
p19
F-126027.0
sS'total_stock_value'
p20
F1729541.0
sS'expenses'
p21
F13868.0
sS'exercised_stock_options'
p22
F1729541.0
sS'from_messages'
p23
F2195.0
sS'other'
p24
F152.0
sS'normalized_from_poi'
p25
F0.016195727084769126
sS'poi'
p26
I00
sS'normalized_to_poi'
p27
F0.029612756264236904
sS'Unnamed: 0'
p28
S'ALLEN PHILLIP K'
p29
sS'deferred_income'
p30
F-3081055.0
sS'shared_receipt_with_poi'
p31
F1407.0
sS'restricted_stock'
p32
F126027.0
sS'director_fees'
p33
F0.0
ssg1
(g5
S'\x01\x00\x00\x00\x00\x00\x00\x00'
p34
tp35
Rp36
(dp37
g12
F0.0
sg13
F0.0
sg14
F178980.0
sg15
F182466.0
sg16
F0.0
sg17
F0.0
sg18
F0.0
sg19
F0.0
sg20
F257817.0
sg21
F3486.0
sg22
F257817.0
sg23
F0.0
sg24
F0.0
sg25
F0.0
sg26
I00
sg27
F0.0
sg28
S'BADUM JAMES P'
p38
sg30
F0.0
sg31
F0.0
sg32
F0.0
sg33
F0.0
ssg1
(g5
S'\x02\x00\x00\x00\x00\x00\x00\x00'
p39
tp40
Rp41
(dp42
g12
F477.0
sg13
F566.0
sg14
F0.0
sg15
F916197.0
sg16
F0.0
sg17
F0.0
sg18
F0.0
sg19
F-560222.0
sg20
F5243487.0
sg21
F56301.0
sg22
F4046157.0
sg23
F29.0
sg24
F864523.0
sg25
F0.06890459363957598
sg26
I00
sg27
F0.0
sg28
S'BANNANTINE JAMES M'
p43
sg30
F-5104.0
sg31
F465.0
sg32
F1757552.0
sg33
F0.0
ssg1
(g5
S'\x03\x00\x00\x00\x00\x00\x00\x00'
p44
tp45
Rp46
(dp47
g12
F267102.0
sg13
F0.0
sg14
F1295738.0
sg15
F5634343.0
sg16
F1586055.0
sg17
F0.0
sg18
F1200000.0
sg19
F0.0
sg20
F10623258.0
sg21
F11200.0
sg22
F6680544.0
sg23
F0.0
sg24
F2660303.0
sg25
F0.0
sg26
I00
sg27
F0.0
sg28
S'BAXTER JOHN C'
p48
sg30
F-1386055.0
sg31
F0.0
sg32
F3942714.0
sg33
F0.0
ssg1
(g5
S'\x04\x00\x00\x00\x00\x00\x00\x00'
p49
tp50
Rp51
(dp52
g12
F239671.0
sg13
F0.0
sg14
F260455.0
sg15
F827696.0
sg16
F0.0
sg17
F0.0
sg18
F400000.0
sg19
F-82782.0
sg20
F63014.0
sg21
F129142.0
sg22
F0.0
sg23
F0.0
sg24
F69.0
sg25
F0.0
sg26
I00
sg27
F0.0
sg28
S'BAY FRANKLIN R'
p53
sg30
F-201641.0
sg31
F0.0
sg32
F145796.0
sg33
F0.0
ssg1
(g5
S'\x05\x00\x00\x00\x00\x00\x00\x00'
p54
tp55
Rp56
(dp57
g12
F80818.0
sg13
F0.0
sg14
F684694.0
sg15
F860136.0
sg16
F93750.0
sg17
F0.0
sg18
F0.0
sg19
F0.0
sg20
F1599641.0
sg21
F0.0
sg22
F1599641.0
sg23
F0.0
sg24
F874.0
sg25
F0.0
sg26
I00
sg27
F0.0
sg28
S'BAZELIDES PHILIP J'
p58
sg30
F0.0
sg31
F0.0
sg32
F0.0
sg33
F0.0
ssg1
(g5
S'\x06\x00\x00\x00\x00\x00\x00\x00'
p59
tp60
Rp61
(dp62
g12
F231330.0
sg13
F7315.0
sg14
F0.0
sg15
F969068.0
sg16
F0.0
sg17
F0.0
sg18
F700000.0
sg19
F0.0
sg20
F126027.0
sg21
F37172.0
sg22
F0.0
sg23
F4343.0
sg24
F566.0
sg25
F0.01968557758031442
sg26
I00
sg27
F0.08887865530739121
sg28
S'BECK SALLY W'
p63
sg30
F0.0
sg31
F2639.0
sg32
F126027.0
sg33
F0.0
ssg1
(g5
S'\x07\x00\x00\x00\x00\x00\x00\x00'
p64
tp65
Rp66
(dp67
g12
F213999.0
sg13
F7991.0
sg14
F2144013.0
sg15
F5501630.0
sg16
F0.0
sg17
F0.0
sg18
F5249999.0
sg19
F0.0
sg20
F1110705.0
sg21
F17355.0
sg22
F953136.0
sg23
F484.0
sg24
F210698.0
sg25
F0.028532098610937303
sg26
I01
sg27
F0.2231404958677686
sg28
S'BELDEN TIMOTHY N'
p68
sg30
F-2334434.0
sg31
F5521.0
sg32
F157569.0
sg33
F0.0
ssg1
(g5
S'\x08\x00\x00\x00\x00\x00\x00\x00'
p69
tp70
Rp71
(dp72
g12
F0.0
sg13
F0.0
sg14
F-102500.0
sg15
F102500.0
sg16
F0.0
sg17
F0.0
sg18
F0.0
sg19
F44093.0
sg20
F-44093.0
sg21
F0.0
sg22
F3285.0
sg23
F0.0
sg24
F0.0
sg25
F0.0
sg26
I00
sg27
F0.0
sg28
S'BELFER ROBERT'
p73
sg30
F0.0
sg31
F0.0
sg32
F0.0
sg33
F3285.0
ssg1
(g5
S'\t\x00\x00\x00\x00\x00\x00\x00'
p74
tp75
Rp76
(dp77
g12
F216582.0
sg13
F0.0
sg14
F0.0
sg15
F228474.0
sg16
F0.0
sg17
F0.0
sg18
F0.0
sg19
F0.0
sg20
F2493616.0
sg21
F11892.0
sg22
F1624396.0
sg23
F0.0
sg24
F0.0
sg25
F0.0
sg26
I00
sg27
F0.0
sg28
S'BERBERIAN DAVID'
p78
sg30
F0.0
sg31
F0.0
sg32
F869220.0
sg33
F0.0
ssg1
(g5
S'\n\x00\x00\x00\x00\x00\x00\x00'
p79
tp80
Rp81
(dp82
g12
F187922.0
sg13
F383.0
sg14
F0.0
sg15
F618850.0
sg16
F180250.0
sg17
F0.0
sg18
F250000.0
sg19
F0.0
sg20
F659249.0
sg21
F59175.0
sg22
F0.0
sg23
F59.0
sg24
F427316.0
sg25
F0.010443864229765013
sg26
I00
sg27
F0.0
sg28
S'BERGSIEKER RICHARD P'
p83
sg30
F-485813.0
sg31
F233.0
sg32
F659249.0
sg33
F0.0
ssg1
(g5
S'\x0b\x00\x00\x00\x00\x00\x00\x00'
p84
tp85
Rp86
(dp87
g12
F0.0
sg13
F523.0
sg14
F0.0
sg15
F15456290.0
sg16
F0.0
sg17
F0.0
sg18
F0.0
sg19
F15456290.0
sg20
F0.0
sg21
F0.0
sg22
F2604490.0
sg23
F29.0
sg24
F137864.0
sg25
F0.0
sg26
I00
sg27
F0.034482758620689655
sg28
S'BHATNAGAR SANJAY'
p88
sg30
F0.0
sg31
F463.0
sg32
F-2604490.0
sg33
F137864.0
ssg1
(g5
S'\x0c\x00\x00\x00\x00\x00\x00\x00'
p89
tp90
Rp91
(dp92
g12
F213625.0
sg13
F1607.0
sg14
F0.0
sg15
F2047593.0
sg16
F369721.0
sg17
F0.0
sg18
F1000000.0
sg19
F0.0
sg20
F1843816.0
sg21
F38559.0
sg22
F1465734.0
sg23
F40.0
sg24
F425688.0
sg25
F0.01431238332296204
sg26
I00
sg27
F0.2
sg28
S'BIBI PHILIPPE A'
p93
sg30
F0.0
sg31
F1336.0
sg32
F378082.0
sg33
F0.0
ssg1
(g5
S'\r\x00\x00\x00\x00\x00\x00\x00'
p94
tp95
Rp96
(dp97
g12
F248546.0
sg13
F2475.0
sg14
F0.0
sg15
F2014835.0
sg16
F831809.0
sg17
F0.0
sg18
F850000.0
sg19
F0.0
sg20
F954354.0
sg21
F84208.0
sg22
F765313.0
sg23
F14.0
sg24
F272.0
sg25
F0.010101010101010102
sg26
I00
sg27
F0.14285714285714285
sg28
S'BLACHMAN JEREMY M'
p98
sg30
F0.0
sg31
F2326.0
sg32
F189041.0
sg33
F0.0
ssg1
(g5
S'\x0e\x00\x00\x00\x00\x00\x00\x00'
p99
tp100
Rp101
(dp102
g12
F0.0
sg13
F0.0
sg14
F0.0
sg15
F1279.0
sg16
F0.0
sg17
F0.0
sg18
F0.0
sg19
F0.0
sg20
F0.0
sg21
F1279.0
sg22
F0.0
sg23
F0.0
sg24
F0.0
sg25
F0.0
sg26
I00
sg27
F0.0
sg28
S'BLAKE JR. NORMAN P'
p103
sg30
F-113784.0
sg31
F0.0
sg32
F0.0
sg33
F113784.0
ssg1
(g5
S'\x0f\x00\x00\x00\x00\x00\x00\x00'
p104
tp105
Rp106
(dp107
g12
F278601.0
sg13
F1858.0
sg14
F0.0
sg15
F2669589.0
sg16
F974293.0
sg17
F0.0
sg18
F1350000.0
sg19
F0.0
sg20
F252055.0
sg21
F65907.0
sg22
F0.0
sg23
F27.0
sg24
F1621.0
sg25
F0.07534983853606028
sg26
I01
sg27
F0.5555555555555556
sg28
S'BOWEN JR RAYMOND M'
p108
sg30
F-833.0
sg31
F1593.0
sg32
F252055.0
sg33
F0.0
ssg1
(g5
S'\x10\x00\x00\x00\x00\x00\x00\x00'
p109
tp110
Rp111
(dp112
g12
F0.0
sg13
F1486.0
sg14
F0.0
sg15
F49288.0
sg16
F0.0
sg17
F0.0
sg18
F0.0
sg19
F0.0
sg20
F0.0
sg21
F49288.0
sg22
F0.0
sg23
F41.0
sg24
F0.0
sg25
F0.008748317631224764
sg26
I00
sg27
F0.024390243902439025
sg28
S'BROWN MICHAEL'
p113
sg30
F0.0
sg31
F761.0
sg32
F0.0
sg33
F0.0
ssg1
(g5
S'\x11\x00\x00\x00\x00\x00\x00\x00'
p114
tp115
Rp116
(dp117
g12
F248017.0
sg13
F1088.0
sg14
F0.0
sg15
F1054637.0
sg16
F304805.0
sg17
F0.0
sg18
F500000.0
sg19
F0.0
sg20
F1014505.0
sg21
F600.0
sg22
F825464.0
sg23
F125.0
sg24
F1215.0
sg25
F0.0
sg26
I00
sg27
F0.0
sg28
S'BUCHANAN HAROLD G'
p118
sg30
F0.0
sg31
F23.0
sg32
F189041.0
sg33
F0.0
ssg1
(g5
S'\x12\x00\x00\x00\x00\x00\x00\x00'
p119
tp120
Rp121
(dp122
g12
F261516.0
sg13
F0.0
sg14
F0.0
sg15
F1271582.0
sg16
F175000.0
sg17
F0.0
sg18
F750000.0
sg19
F0.0
sg20
F417619.0
sg21
F9410.0
sg22
F0.0
sg23
F0.0
sg24
F150656.0
sg25
F0.0
sg26
I00
sg27
F0.0
sg28
S'BUTTS ROBERT H'
p123
sg30
F-75000.0
sg31
F0.0
sg32
F417619.0
sg33
F0.0
ssg1
(g5
S'\x13\x00\x00\x00\x00\x00\x00\x00'
p124
tp125
Rp126
(dp127
g12
F330546.0
sg13
F3523.0
sg14
F649584.0
sg15
F2355702.0
sg16
F769862.0
sg17
F0.0
sg18
F900000.0
sg19
F0.0
sg20
F3444470.0
sg21
F0.0
sg22
F2542813.0
sg23
F1053.0
sg24
F400572.0
sg25
F0.04428044280442804
sg26
I00
sg27
F0.06742640075973409
sg28
S'BUY RICHARD B'
p128
sg30
F-694862.0
sg31
F2333.0
sg32
F901657.0
sg33
F0.0
ssg1
(g5
S'\x14\x00\x00\x00\x00\x00\x00\x00'
p129
tp130
Rp131
(dp132
g12
F240189.0
sg13
F2598.0
sg14
F0.0
sg15
F1639297.0
sg16
F375304.0
sg17
F0.0
sg18
F1250000.0
sg19
F0.0
sg20
F126027.0
sg21
F35818.0
sg22
F0.0
sg23
F144.0
sg24
F486.0
sg25
F0.07659738260200154
sg26
I01
sg27
F0.1736111111111111
sg28
S'CALGER CHRISTOPHER F'
p133
sg30
F-262500.0
sg31
F2188.0
sg32
F126027.0
sg33
F0.0
ssg1
(g5
S'\x15\x00\x00\x00\x00\x00\x00\x00'
p134
tp135
Rp136
(dp137
g12
F261809.0
sg13
F312.0
sg14
F0.0
sg15
F477557.0
sg16
F75000.0
sg17
F0.0
sg18
F300000.0
sg19
F-307301.0
sg20
F0.0
sg21
F0.0
sg22
F0.0
sg23
F15.0
sg24
F540.0
sg25
F0.09294871794871795
sg26
I00
sg27
F0.4666666666666667
sg28
S'CARTER REBECCA C'
p138
sg30
F-159792.0
sg31
F196.0
sg32
F307301.0
sg33
F0.0
ssg1
(g5
S'\x16\x00\x00\x00\x00\x00\x00\x00'
p139
tp140
Rp141
(dp142
g12
F415189.0
sg13
F1892.0
sg14
F0.0
sg15
F1868758.0
sg16
F350000.0
sg17
F0.0
sg18
F1000000.0
sg19
F0.0
sg20
F2502063.0
sg21
F30674.0
sg22
F0.0
sg23
F49.0
sg24
F307895.0
sg25
F0.0306553911205074
sg26
I01
sg27
F0.24489795918367346
sg28
S'CAUSEY RICHARD A'
p143
sg30
F-235000.0
sg31
F1585.0
sg32
F2502063.0
sg33
F0.0
ssg1
(g5
S'\x17\x00\x00\x00\x00\x00\x00\x00'
p144
tp145
Rp146
(dp147
g12
F0.0
sg13
F0.0
sg14
F0.0
sg15
F0.0
sg16
F0.0
sg17
F0.0
sg18
F0.0
sg19
F-32460.0
sg20
F0.0
sg21
F0.0
sg22
F0.0
sg23
F0.0
sg24
F0.0
sg25
F0.0
sg26
I00
sg27
F0.0
sg28
S'CHAN RONNIE'
p148
sg30
F-98784.0
sg31
F0.0
sg32
F32460.0
sg33
F98784.0
ssg1
(g5
S'\x18\x00\x00\x00\x00\x00\x00\x00'
p149
tp150
Rp151
(dp152
g12
F0.0
sg13
F0.0
sg14
F0.0
sg15
F0.0
sg16
F0.0
sg17
F0.0
sg18
F0.0
sg19
F0.0
sg20
F6077885.0
sg21
F0.0
sg22
F5127155.0
sg23
F0.0
sg24
F0.0
sg25
F0.0
sg26
I00
sg27
F0.0
sg28
S'CHRISTODOULOU DIOMEDES'
p153
sg30
F0.0
sg31
F0.0
sg32
F950730.0
sg33
F0.0
ssg1
(g5
S'\x19\x00\x00\x00\x00\x00\x00\x00'
p154
tp155
Rp156
(dp157
g12
F0.0
sg13
F0.0
sg14
F0.0
sg15
F0.0
sg16
F0.0
sg17
F0.0
sg18
F0.0
sg19
F-472568.0
sg20
F189518.0
sg21
F0.0
sg22
F0.0
sg23
F0.0
sg24
F0.0
sg25
F0.0
sg26
I00
sg27
F0.0
sg28
S'CLINE KENNETH W'
p158
sg30
F0.0
sg31
F0.0
sg32
F662086.0
sg33
F0.0
ssg1
(g5
S'\x1a\x00\x00\x00\x00\x00\x00\x00'
p159
tp160
Rp161
(dp162
g12
F288542.0
sg13
F1758.0
sg14
F27610.0
sg15
F1490344.0
sg16
F0.0
sg17
F0.0
sg18
F1200000.0
sg19
F0.0
sg20
F698242.0
sg21
F16514.0
sg22
F0.0
sg23
F40.0
sg24
F101740.0
sg25
F0.13651877133105803
sg26
I01
sg27
F0.275
sg28
S'COLWELL WESLEY'
p163
sg30
F-144062.0
sg31
F1132.0
sg32
F698242.0
sg33
F0.0
ssg1
(g5
S'\x1b\x00\x00\x00\x00\x00\x00\x00'
p164
tp165
Rp166
(dp167
g12
F0.0
sg13
F764.0
sg14
F0.0
sg15
F0.0
sg16
F0.0
sg17
F0.0
sg18
F0.0
sg19
F0.0
sg20
F1038185.0
sg21
F0.0
sg22
F651850.0
sg23
F12.0
sg24
F0.0
sg25
F0.013089005235602094
sg26
I00
sg27
F0.0
sg28
S'CORDES WILLIAM R'
p168
sg30
F0.0
sg31
F58.0
sg32
F386335.0
sg33
F0.0
ssg1
(g5
S'\x1c\x00\x00\x00\x00\x00\x00\x00'
p169
tp170
Rp171
(dp172
g12
F314288.0
sg13
F102.0
sg14
F0.0
sg15
F1101393.0
sg16
F0.0
sg17
F0.0
sg18
F800000.0
sg19
F0.0
sg20
F495633.0
sg21
F27861.0
sg22
F117551.0
sg23
F33.0
sg24
F494.0
sg25
F0.0
sg26
I00
sg27
F0.12121212121212122
sg28
S'COX DAVID'
p173
sg30
F-41250.0
sg31
F71.0
sg32
F378082.0
sg33
F0.0
ssg1
(g5
S'\x1d\x00\x00\x00\x00\x00\x00\x00'
p174
tp175
Rp176
(dp177
g12
F184899.0
sg13
F0.0
sg14
F0.0
sg15
F807956.0
sg16
F275000.0
sg17
F0.0
sg18
F325000.0
sg19
F0.0
sg20
F207940.0
sg21
F22344.0
sg22
F0.0
sg23
F0.0
sg24
F713.0
sg25
F0.0
sg26
I00
sg27
F0.0
sg28
S'CUMBERLAND MICHAEL S'
p178
sg30
F0.0
sg31
F0.0
sg32
F207940.0
sg33
F0.0
ssg1
(g5
S'\x1e\x00\x00\x00\x00\x00\x00\x00'
p179
tp180
Rp181
(dp182
g12
F206121.0
sg13
F714.0
sg14
F0.0
sg15
F1208649.0
sg16
F335349.0
sg17
F0.0
sg18
F600000.0
sg19
F0.0
sg20
F159211.0
sg21
F41626.0
sg22
F17378.0
sg23
F74.0
sg24
F25553.0
sg25
F0.16106442577030813
sg26
I00
sg27
F0.05405405405405406
sg28
S'DEFFNER JOSEPH M'
p183
sg30
F0.0
sg31
F552.0
sg32
F141833.0
sg33
F0.0
ssg1
(g5
S'\x1f\x00\x00\x00\x00\x00\x00\x00'
p184
tp185
Rp186
(dp187
g12
F365163.0
sg13
F3093.0
sg14
F0.0
sg15
F4747979.0
sg16
F1294981.0
sg17
F0.0
sg18
F3000000.0
sg19
F0.0
sg20
F3614261.0
sg21
F86174.0
sg22
F2291113.0
sg23
F3069.0
sg24
F1661.0
sg25
F0.02133850630455868
sg26
I01
sg27
F0.198435972629521
sg28
S'DELAINEY DAVID W'
p188
sg30
F0.0
sg31
F2097.0
sg32
F1323148.0
sg33
F0.0
ssg1
(g5
S' \x00\x00\x00\x00\x00\x00\x00'
p189
tp190
Rp191
(dp192
g12
F492375.0
sg13
F2181.0
sg14
F0.0
sg15
F550981.0
sg16
F484000.0
sg17
F0.0
sg18
F800000.0
sg19
F-1787380.0
sg20
F8831913.0
sg21
F51124.0
sg22
F8831913.0
sg23
F909.0
sg24
F7482.0
sg25
F0.029344337459880788
sg26
I00
sg27
F0.022002200220022004
sg28
S'DERRICK JR. JAMES V'
p193
sg30
F-1284000.0
sg31
F1401.0
sg32
F1787380.0
sg33
F0.0
ssg1
(g5
S'!\x00\x00\x00\x00\x00\x00\x00'
p194
tp195
Rp196
(dp197
g12
F210500.0
sg13
F0.0
sg14
F875307.0
sg15
F1204583.0
sg16
F415657.0
sg17
F0.0
sg18
F425000.0
sg19
F-315068.0
sg20
F2027865.0
sg21
F52255.0
sg22
F2027865.0
sg23
F0.0
sg24
F1105.0
sg25
F0.0
sg26
I00
sg27
F0.0
sg28
S'DETMERING TIMOTHY J'
p198
sg30
F-775241.0
sg31
F0.0
sg32
F315068.0
sg33
F0.0
ssg1
(g5
S'"\x00\x00\x00\x00\x00\x00\x00'
p199
tp200
Rp201
(dp202
g12
F250100.0
sg13
F2572.0
sg14
F0.0
sg15
F1410464.0
sg16
F556416.0
sg17
F0.0
sg18
F600000.0
sg19
F0.0
sg20
F1865087.0
sg21
F3475.0
sg22
F1550019.0
sg23
F63.0
sg24
F473.0
sg25
F0.11858475894245724
sg26
I00
sg27
F0.2222222222222222
sg28
S'DIETRICH JANET R'
p203
sg30
F0.0
sg31
F1902.0
sg32
F315068.0
sg33
F0.0
ssg1
(g5
S'#\x00\x00\x00\x00\x00\x00\x00'
p204
tp205
Rp206
(dp207
g12
F262788.0
sg13
F0.0
sg14
F0.0
sg15
F2368151.0
sg16
F694862.0
sg17
F0.0
sg18
F1000000.0
sg19
F0.0
sg20
F8317782.0
sg21
F35812.0
sg22
F8191755.0
sg23
F0.0
sg24
F374689.0
sg25
F0.0
sg26
I00
sg27
F0.0
sg28
S'DIMICHELE RICHARD G'
p208
sg30
F0.0
sg31
F0.0
sg32
F126027.0
sg33
F0.0
ssg1
(g5
S'$\x00\x00\x00\x00\x00\x00\x00'
p209
tp210
Rp211
(dp212
g12
F221003.0
sg13
F176.0
sg14
F0.0
sg15
F319941.0
sg16
F0.0
sg17
F0.0
sg18
F70000.0
sg19
F0.0
sg20
F0.0
sg21
F28164.0
sg22
F0.0
sg23
F14.0
sg24
F774.0
sg25
F0.056818181818181816
sg26
I00
sg27
F0.21428571428571427
sg28
S'DODSON KEITH'
p213
sg30
F0.0
sg31
F114.0
sg32
F0.0
sg33
F0.0
ssg1
(g5
S'%\x00\x00\x00\x00\x00\x00\x00'
p214
tp215
Rp216
(dp217
g12
F278601.0
sg13
F865.0
sg14
F0.0
sg15
F875760.0
sg16
F0.0
sg17
F0.0
sg18
F800000.0
sg19
F0.0
sg20
F1080988.0
sg21
F96268.0
sg22
F765920.0
sg23
F22.0
sg24
F891.0
sg25
F0.21734104046242775
sg26
I00
sg27
F0.5
sg28
S'DONAHUE JR JEFFREY M'
p218
sg30
F-300000.0
sg31
F772.0
sg32
F315068.0
sg33
F0.0
ssg1
(g5
S'&\x00\x00\x00\x00\x00\x00\x00'
p219
tp220
Rp221
(dp222
g12
F0.0
sg13
F0.0
sg14
F0.0
sg15
F77492.0
sg16
F0.0
sg17
F0.0
sg18
F0.0
sg19
F0.0
sg20
F371750.0
sg21
F0.0
sg22
F371750.0
sg23
F0.0
sg24
F0.0
sg25
F0.0
sg26
I00
sg27
F0.0
sg28
S'DUNCAN JOHN H'
p223
sg30
F-25000.0
sg31
F0.0
sg32
F0.0
sg33
F102492.0
ssg1
(g5
S"'\x00\x00\x00\x00\x00\x00\x00"
p224
tp225
Rp226
(dp227
g12
F210692.0
sg13
F904.0
sg14
F0.0
sg15
F2093263.0
sg16
F1105218.0
sg17
F0.0
sg18
F750000.0
sg19
F0.0
sg20
F1640910.0
sg21
F25785.0
sg22
F1451869.0
sg23
F12.0
sg24
F1568.0
sg25
F0.1172566371681416
sg26
I00
sg27
F0.25
sg28
S'DURAN WILLIAM D'
p228
sg30
F0.0
sg31
F599.0
sg32
F189041.0
sg33
F0.0
ssg1
(g5
S'(\x00\x00\x00\x00\x00\x00\x00'
p229
tp230
Rp231
(dp232
g12
F182245.0
sg13
F0.0
sg14
F0.0
sg15
F2692324.0
sg16
F2234774.0
sg17
F0.0
sg18
F200000.0
sg19
F0.0
sg20
F1008941.0
sg21
F21530.0
sg22
F601438.0
sg23
F0.0
sg24
F53775.0
sg25
F0.0
sg26
I00
sg27
F0.0
sg28
S'ECHOLS JOHN B'
p233
sg30
F0.0
sg31
F0.0
sg32
F407503.0
sg33
F0.0
ssg1
(g5
S')\x00\x00\x00\x00\x00\x00\x00'
p234
tp235
Rp236
(dp237
g12
F170941.0
sg13
F0.0
sg14
F0.0
sg15
F211725.0
sg16
F0.0
sg17
F0.0
sg18
F350000.0
sg19
F0.0
sg20
F6678735.0
sg21
F78552.0
sg22
F4890344.0
sg23
F0.0
sg24
F12961.0
sg25
F0.0
sg26
I00
sg27
F0.0
sg28
S'ELLIOTT STEVEN'
p238
sg30
F-400729.0
sg31
F0.0
sg32
F1788391.0
sg33
F0.0
ssg1
(g5
S'*\x00\x00\x00\x00\x00\x00\x00'
p239
tp240
Rp241
(dp242
g12
F304588.0
sg13
F1755.0
sg14
F0.0
sg15
F3676340.0
sg16
F374347.0
sg17
F0.0
sg18
F2500000.0
sg19
F0.0
sg20
F2332399.0
sg21
F95924.0
sg22
F940257.0
sg23
F75.0
sg24
F401481.0
sg25
F0.023931623931623933
sg26
I00
sg27
F0.49333333333333335
sg28
S'FALLON JAMES B'
p243
sg30
F0.0
sg31
F1604.0
sg32
F1392142.0
sg33
F0.0
ssg1
(g5
S'+\x00\x00\x00\x00\x00\x00\x00'
p244
tp245
Rp246
(dp247
g12
F440698.0
sg13
F0.0
sg14
F0.0
sg15
F2424083.0
sg16
F1736055.0
sg17
F0.0
sg18
F1300000.0
sg19
F0.0
sg20
F1794412.0
sg21
F55921.0
sg22
F0.0
sg23
F0.0
sg24
F277464.0
sg25
F0.0
sg26
I01
sg27
F0.0
sg28
S'FASTOW ANDREW S'
p248
sg30
F-1386055.0
sg31
F0.0
sg32
F1794412.0
sg33
F0.0
ssg1
(g5
S',\x00\x00\x00\x00\x00\x00\x00'
p249
tp250
Rp251
(dp252
g12
F199157.0
sg13
F936.0
sg14
F0.0
sg15
F1414857.0
sg16
F556416.0
sg17
F0.0
sg18
F350000.0
sg19
F0.0
sg20
F1621236.0
sg21
F23870.0
sg22
F664461.0
sg23
F16.0
sg24
F285414.0
sg25
F0.0010683760683760685
sg26
I00
sg27
F0.5
sg28
S'FITZGERALD JAY L'
p253
sg30
F0.0
sg31
F723.0
sg32
F956775.0
sg33
F0.0
ssg1
(g5
S'-\x00\x00\x00\x00\x00\x00\x00'
p254
tp255
Rp256
(dp257
g12
F0.0
sg13
F517.0
sg14
F0.0
sg15
F0.0
sg16
F0.0
sg17
F0.0
sg18
F0.0
sg19
F0.0
sg20
F1884748.0
sg21
F0.0
sg22
F1324578.0
sg23
F36.0
sg24
F0.0
sg25
F0.0
sg26
I00
sg27
F0.0
sg28
S'FOWLER PEGGY'
p258
sg30
F0.0
sg31
F10.0
sg32
F560170.0
sg33
F0.0
ssg1
(g5
S'.\x00\x00\x00\x00\x00\x00\x00'
p259
tp260
Rp261
(dp262
g12
F0.0
sg13
F57.0
sg14
F181755.0
sg15
F181755.0
sg16
F0.0
sg17
F0.0
sg18
F0.0
sg19
F0.0
sg20
F343434.0
sg21
F0.0
sg22
F343434.0
sg23
F13.0
sg24
F0.0
sg25
F0.0
sg26
I00
sg27
F0.0
sg28
S'FOY JOE'
p263
sg30
F0.0
sg31
F2.0
sg32
F0.0
sg33
F0.0
ssg1
(g5
S'/\x00\x00\x00\x00\x00\x00\x00'
p264
tp265
Rp266
(dp267
g12
F1060932.0
sg13
F3275.0
sg14
F6426990.0
sg15
F17252530.0
sg16
F1617011.0
sg17
F2000000.0
sg18
F2000000.0
sg19
F0.0
sg20
F14622185.0
sg21
F86987.0
sg22
F10433518.0
sg23
F21.0
sg24
F7427621.0
sg25
F0.07389312977099237
sg26
I00
sg27
F0.2857142857142857
sg28
S'FREVERT MARK A'
p268
sg30
F-3367011.0
sg31
F2979.0
sg32
F4188667.0
sg33
F0.0
ssg1
(g5
S'0\x00\x00\x00\x00\x00\x00\x00'
p269
tp270
Rp271
(dp272
g12
F0.0
sg13
F0.0
sg14
F50591.0
sg15
F50591.0
sg16
F0.0
sg17
F0.0
sg18
F0.0
sg19
F0.0
sg20
F176378.0
sg21
F0.0
sg22
F176378.0
sg23
F0.0
sg24
F0.0
sg25
F0.0
sg26
I00
sg27
F0.0
sg28
S'FUGH JOHN L'
p273
sg30
F0.0
sg31
F0.0
sg32
F0.0
sg33
F0.0
ssg1
(g5
S'1\x00\x00\x00\x00\x00\x00\x00'
p274
tp275
Rp276
(dp277
g12
F192008.0
sg13
F0.0
sg14
F73122.0
sg15
F900585.0
sg16
F0.0
sg17
F0.0
sg18
F509870.0
sg19
F0.0
sg20
F318607.0
sg21
F50080.0
sg22
F83237.0
sg23
F0.0
sg24
F76547.0
sg25
F0.0
sg26
I00
sg27
F0.0
sg28
S'GAHN ROBERT S'
p278
sg30
F-1042.0
sg31
F0.0
sg32
F235370.0
sg33
F0.0
ssg1
(g5
S'2\x00\x00\x00\x00\x00\x00\x00'
p279
tp280
Rp281
(dp282
g12
F231946.0
sg13
F209.0
sg14
F0.0
sg15
F1566469.0
sg16
F375304.0
sg17
F0.0
sg18
F850000.0
sg19
F0.0
sg20
F896153.0
sg21
F48405.0
sg22
F636246.0
sg23
F44.0
sg24
F60814.0
sg25
F0.04784688995215311
sg26
I00
sg27
F0.6136363636363636
sg28
S'GARLAND C KEVIN'
p283
sg30
F0.0
sg31
F178.0
sg32
F259907.0
sg33
F0.0
ssg1
(g5
S'3\x00\x00\x00\x00\x00\x00\x00'
p284
tp285
Rp286
(dp287
g12
F0.0
sg13
F0.0
sg14
F0.0
sg15
F0.0
sg16
F0.0
sg17
F0.0
sg18
F0.0
sg19
F-72419.0
sg20
F1945360.0
sg21
F0.0
sg22
F1753766.0
sg23
F0.0
sg24
F0.0
sg25
F0.0
sg26
I00
sg27
F0.0
sg28
S'GATHMANN WILLIAM D'
p288
sg30
F0.0
sg31
F0.0
sg32
F264013.0
sg33
F0.0
ssg1
(g5
S'4\x00\x00\x00\x00\x00\x00\x00'
p289
tp290
Rp291
(dp292
g12
F0.0
sg13
F169.0
sg14
F504610.0
sg15
F966522.0
sg16
F461912.0
sg17
F0.0
sg18
F0.0
sg19
F0.0
sg20
F2218275.0
sg21
F0.0
sg22
F2218275.0
sg23
F12.0
sg24
F0.0
sg25
F0.0
sg26
I00
sg27
F0.0
sg28
S'GIBBS DANA R'
p293
sg30
F0.0
sg31
F23.0
sg32
F0.0
sg33
F0.0
ssg1
(g5
S'5\x00\x00\x00\x00\x00\x00\x00'
p294
tp295
Rp296
(dp297
g12
F0.0
sg13
F0.0
sg14
F0.0
sg15
F0.0
sg16
F0.0
sg17
F0.0
sg18
F0.0
sg19
F0.0
sg20
F85641.0
sg21
F0.0
sg22
F9803.0
sg23
F0.0
sg24
F0.0
sg25
F0.0
sg26
I00
sg27
F0.0
sg28
S'GILLIS JOHN'
p298
sg30
F0.0
sg31
F0.0
sg32
F75838.0
sg33
F0.0
ssg1
(g5
S'6\x00\x00\x00\x00\x00\x00\x00'
p299
tp300
Rp301
(dp302
g12
F274975.0
sg13
F873.0
sg14
F0.0
sg15
F1272284.0
sg16
F71023.0
sg17
F0.0
sg18
F600000.0
sg19
F0.0
sg20
F778546.0
sg21
F125978.0
sg22
F384728.0
sg23
F16.0
sg24
F200308.0
sg25
F0.05956471935853379
sg26
I01
sg27
F0.375
sg28
S'GLISAN JR BEN F'
p303
sg30
F0.0
sg31
F874.0
sg32
F393818.0
sg33
F0.0
ssg1
(g5
S'7\x00\x00\x00\x00\x00\x00\x00'
p304
tp305
Rp306
(dp307
g12
F272880.0
sg13
F0.0
sg14
F0.0
sg15
F2146973.0
sg16
F304805.0
sg17
F0.0
sg18
F750000.0
sg19
F0.0
sg20
F877611.0
sg21
F0.0
sg22
F436515.0
sg23
F0.0
sg24
F819288.0
sg25
F0.0
sg26
I00
sg27
F0.0
sg28
S'GOLD JOSEPH'
p308
sg30
F0.0
sg31
F0.0
sg32
F441096.0
sg33
F0.0
ssg1
(g5
S'8\x00\x00\x00\x00\x00\x00\x00'
p309
tp310
Rp311
(dp312
g12
F0.0
sg13
F0.0
sg14
F0.0
sg15
F119292.0
sg16
F0.0
sg17
F0.0
sg18
F0.0
sg19
F0.0
sg20
F0.0
sg21
F0.0
sg22
F0.0
sg23
F0.0
sg24
F0.0
sg25
F0.0
sg26
I00
sg27
F0.0
sg28
S'GRAMM WENDY L'
p313
sg30
F0.0
sg31
F0.0
sg32
F0.0
sg33
F119292.0
ssg1
(g5
S'9\x00\x00\x00\x00\x00\x00\x00'
p314
tp315
Rp316
(dp317
g12
F6615.0
sg13
F0.0
sg14
F93585.0
sg15
F1146658.0
sg16
F365625.0
sg17
F0.0
sg18
F0.0
sg19
F0.0
sg20
F0.0
sg21
F0.0
sg22
F0.0
sg23
F0.0
sg24
F680833.0
sg25
F0.0
sg26
I00
sg27
F0.0
sg28
S'GRAY RODNEY'
p318
sg30
F0.0
sg31
F0.0
sg32
F0.0
sg33
F0.0
ssg1
(g5
S':\x00\x00\x00\x00\x00\x00\x00'
p319
tp320
Rp321
(dp322
g12
F374125.0
sg13
F4009.0
sg14
F2157527.0
sg15
F3859065.0
sg16
F983346.0
sg17
F0.0
sg18
F1150000.0
sg19
F-329825.0
sg20
F803094.0
sg21
F76169.0
sg22
F608750.0
sg23
F1941.0
sg24
F52382.0
sg25
F0.04489897730107259
sg26
I00
sg27
F0.03142709943328181
sg28
S'HAEDICKE MARK E'
p323
sg30
F-934484.0
sg31
F1847.0
sg32
F524169.0
sg33
F0.0
ssg1
(g5
S';\x00\x00\x00\x00\x00\x00\x00'
p324
tp325
Rp326
(dp327
g12
F243293.0
sg13
F1045.0
sg14
F0.0
sg15
F288682.0
sg16
F1617011.0
sg17
F0.0
sg18
F1500000.0
sg19
F0.0
sg20
F6391065.0
sg21
F34039.0
sg22
F5538001.0
sg23
F32.0
sg24
F11350.0
sg25
F0.03062200956937799
sg26
I01
sg27
F0.65625
sg28
S'HANNON KEVIN P'
p328
sg30
F-3117011.0
sg31
F1035.0
sg32
F853064.0
sg33
F0.0
ssg1
(g5
S'<\x00\x00\x00\x00\x00\x00\x00'
p329
tp330
Rp331
(dp332
g12
F0.0
sg13
F573.0
sg14
F0.0
sg15
F475.0
sg16
F0.0
sg17
F0.0
sg18
F0.0
sg19
F0.0
sg20
F2217299.0
sg21
F475.0
sg22
F0.0
sg23
F19.0
sg24
F0.0
sg25
F0.006980802792321117
sg26
I00
sg27
F0.3684210526315789
sg28
S'HAUG DAVID L'
p333
sg30
F0.0
sg31
F471.0
sg32
F2217299.0
sg33
F0.0
ssg1
(g5
S'=\x00\x00\x00\x00\x00\x00\x00'
p334
tp335
Rp336
(dp337
g12
F0.0
sg13
F504.0
sg14
F7961.0
sg15
F7961.0
sg16
F0.0
sg17
F0.0
sg18
F0.0
sg19
F0.0
sg20
F151418.0
sg21
F0.0
sg22
F0.0
sg23
F12.0
sg24
F0.0
sg25
F0.031746031746031744
sg26
I00
sg27
F0.0
sg28
S'HAYES ROBERT E'
p338
sg30
F0.0
sg31
F50.0
sg32
F151418.0
sg33
F0.0
ssg1
(g5
S'>\x00\x00\x00\x00\x00\x00\x00'
p339
tp340
Rp341
(dp342
g12
F0.0
sg13
F2649.0
sg14
F0.0
sg15
F0.0
sg16
F0.0
sg17
F0.0
sg18
F0.0
sg19
F0.0
sg20
F346663.0
sg21
F0.0
sg22
F0.0
sg23
F1061.0
sg24
F0.0
sg25
F0.01321253303133258
sg26
I00
sg27
F0.03581526861451461
sg28
S'HAYSLETT RODERICK J'
p343
sg30
F0.0
sg31
F571.0
sg32
F346663.0
sg33
F0.0
ssg1
(g5
S'?\x00\x00\x00\x00\x00\x00\x00'
p344
tp345
Rp346
(dp347
g12
F262663.0
sg13
F0.0
sg14
F0.0
sg15
F1297461.0
sg16
F150000.0
sg17
F0.0
sg18
F700000.0
sg19
F0.0
sg20
F668132.0
sg21
F48357.0
sg22
F187500.0
sg23
F0.0
sg24
F416441.0
sg25
F0.0
sg26
I00
sg27
F0.0
sg28
S'HERMANN ROBERT J'
p348
sg30
F-280000.0
sg31
F0.0
sg32
F480632.0
sg33
F0.0
ssg1
(g5
S'@\x00\x00\x00\x00\x00\x00\x00'
p349
tp350
Rp351
(dp352
g12
F211788.0
sg13
F1320.0
sg14
F0.0
sg15
F2081796.0
sg16
F69223.0
sg17
F0.0
sg18
F1700000.0
sg19
F0.0
sg20
F441096.0
sg21
F98849.0
sg22
F0.0
sg23
F27.0
sg24
F1936.0
sg25
F0.030303030303030304
sg26
I00
sg27
F0.037037037037037035
sg28
S'HICKERSON GARY J'
p353
sg30
F0.0
sg31
F900.0
sg32
F441096.0
sg33
F0.0
ssg1
(g5
S'A\x00\x00\x00\x00\x00\x00\x00'
p354
tp355
Rp356
(dp357
g12
F0.0
sg13
F0.0
sg14
F10259.0
sg15
F91093.0
sg16
F0.0
sg17
F0.0
sg18
F0.0
sg19
F0.0
sg20
F30766064.0
sg21
F77978.0
sg22
F30766064.0
sg23
F0.0
sg24
F2856.0
sg25
F0.0
sg26
I01
sg27
F0.0
sg28
S'HIRKO JOSEPH'
p358
sg30
F0.0
sg31
F0.0
sg32
F0.0
sg33
F0.0
ssg1
(g5
S'B\x00\x00\x00\x00\x00\x00\x00'
p359
tp360
Rp361
(dp362
g12
F0.0
sg13
F2350.0
sg14
F3131860.0
sg15
F3131860.0
sg16
F0.0
sg17
F0.0
sg18
F0.0
sg19
F0.0
sg20
F7256648.0
sg21
F0.0
sg22
F5210569.0
sg23
F1073.0
sg24
F0.0
sg25
F0.01872340425531915
sg26
I00
sg27
F0.013979496738117428
sg28
S'HORTON STANLEY C'
p363
sg30
F0.0
sg31
F1074.0
sg32
F2046079.0
sg33
F0.0
ssg1
(g5
S'C\x00\x00\x00\x00\x00\x00\x00'
p364
tp365
Rp366
(dp367
g12
F0.0
sg13
F719.0
sg14
F0.0
sg15
F0.0
sg16
F0.0
sg17
F0.0
sg18
F0.0
sg19
F0.0
sg20
F1118394.0
sg21
F0.0
sg22
F754966.0
sg23
F34.0
sg24
F0.0
sg25
F0.048678720445062586
sg26
I00
sg27
F0.14705882352941177
sg28
S'HUGHES JAMES A'
p368
sg30
F0.0
sg31
F589.0
sg32
F363428.0
sg33
F0.0
ssg1
(g5
S'D\x00\x00\x00\x00\x00\x00\x00'
p369
tp370
Rp371
(dp372
g12
F130724.0
sg13
F128.0
sg14
F2964506.0
sg15
F3100224.0
sg16
F0.0
sg17
F0.0
sg18
F0.0
sg19
F0.0
sg20
F2282768.0
sg21
F4994.0
sg22
F2282768.0
sg23
F17.0
sg24
F0.0
sg25
F0.078125
sg26
I00
sg27
F1.0
sg28
S'HUMPHREY GENE E'
p373
sg30
F0.0
sg31
F119.0
sg32
F0.0
sg33
F0.0
ssg1
(g5
S'E\x00\x00\x00\x00\x00\x00\x00'
p374
tp375
Rp376
(dp377
g12
F85274.0
sg13
F496.0
sg14
F0.0
sg15
F1979596.0
sg16
F312500.0
sg17
F0.0
sg18
F0.0
sg19
F0.0
sg20
F5819980.0
sg21
F28093.0
sg22
F2165172.0
sg23
F19.0
sg24
F1553729.0
sg25
F0.056451612903225805
sg26
I00
sg27
F0.2631578947368421
sg28
S'IZZO LAWRENCE L'
p378
sg30
F0.0
sg31
F437.0
sg32
F3654808.0
sg33
F0.0
ssg1
(g5
S'F\x00\x00\x00\x00\x00\x00\x00'
p379
tp380
Rp381
(dp382
g12
F288558.0
sg13
F258.0
sg14
F0.0
sg15
F551174.0
sg16
F0.0
sg17
F0.0
sg18
F250000.0
sg19
F0.0
sg20
F725735.0
sg21
F10181.0
sg22
F185063.0
sg23
F56.0
sg24
F2435.0
sg25
F0.09689922480620156
sg26
I00
sg27
F0.3392857142857143
sg28
S'JACKSON CHARLENE R'
p383
sg30
F0.0
sg31
F117.0
sg32
F540672.0
sg33
F0.0
ssg1
(g5
S'G\x00\x00\x00\x00\x00\x00\x00'
p384
tp385
Rp386
(dp387
g12
F0.0
sg13
F0.0
sg14
F0.0
sg15
F83750.0
sg16
F0.0
sg17
F0.0
sg18
F0.0
sg19
F-44093.0
sg20
F431750.0
sg21
F0.0
sg22
F431750.0
sg23
F0.0
sg24
F0.0
sg25
F0.0
sg26
I00
sg27
F0.0
sg28
S'JAEDICKE ROBERT'
p388
sg30
F-25000.0
sg31
F0.0
sg32
F44093.0
sg33
F108750.0
ssg1
(g5
S'H\x00\x00\x00\x00\x00\x00\x00'
p389
tp390
Rp391
(dp392
g12
F275101.0
sg13
F4607.0
sg14
F0.0
sg15
F1086821.0
sg16
F323466.0
sg17
F0.0
sg18
F400000.0
sg19
F0.0
sg20
F976037.0
sg21
F83585.0
sg22
F850010.0
sg23
F14368.0
sg24
F4669.0
sg25
F0.008899500759713479
sg26
I00
sg27
F0.011901447661469933
sg28
S'KAMINSKI WINCENTY J'
p393
sg30
F0.0
sg31
F583.0
sg32
F126027.0
sg33
F0.0
ssg1
(g5
S'I\x00\x00\x00\x00\x00\x00\x00'
p394
tp395
Rp396
(dp397
g12
F404338.0
sg13
F12754.0
sg14
F0.0
sg15
F1747522.0
sg16
F300000.0
sg17
F0.0
sg18
F1000000.0
sg19
F0.0
sg20
F6153642.0
sg21
F41953.0
sg22
F2022048.0
sg23
F6759.0
sg24
F1231.0
sg25
F0.010976948408342482
sg26
I00
sg27
F0.05725699067909454
sg28
S'KEAN STEVEN J'
p398
sg30
F0.0
sg31
F3639.0
sg32
F4131594.0
sg33
F0.0
ssg1
(g5
S'J\x00\x00\x00\x00\x00\x00\x00'
p399
tp400
Rp401
(dp402
g12
F174246.0
sg13
F0.0
sg14
F0.0
sg15
F704896.0
sg16
F0.0
sg17
F0.0
sg18
F0.0
sg19
F0.0
sg20
F1034346.0
sg21
F116335.0
sg22
F0.0
sg23
F0.0
sg24
F465357.0
sg25
F0.0
sg26
I00
sg27
F0.0
sg28
S'KISHKILL JOSEPH G'
p403
sg30
F-51042.0
sg31
F0.0
sg32
F1034346.0
sg33
F0.0
ssg1
(g5
S'K\x00\x00\x00\x00\x00\x00\x00'
p404
tp405
Rp406
(dp407
g12
F271442.0
sg13
F8305.0
sg14
F0.0
sg15
F3471141.0
sg16
F0.0
sg17
F0.0
sg18
F3100000.0
sg19
F0.0
sg20
F547143.0
sg21
F5774.0
sg22
F81042.0
sg23
F1728.0
sg24
F93925.0
sg25
F0.030222757375075255
sg26
I00
sg27
F0.11226851851851852
sg28
S'KITCHEN LOUISE'
p408
sg30
F0.0
sg31
F3669.0
sg32
F466101.0
sg33
F0.0
ssg1
(g5
S'L\x00\x00\x00\x00\x00\x00\x00'
p409
tp410
Rp411
(dp412
g12
F309946.0
sg13
F2374.0
sg14
F0.0
sg15
F1587421.0
sg16
F300000.0
sg17
F0.0
sg18
F700000.0
sg19
F0.0
sg20
F1920055.0
sg21
F127017.0
sg22
F671737.0
sg23
F61.0
sg24
F150458.0
sg25
F0.02232518955349621
sg26
I01
sg27
F0.2459016393442623
sg28
S'KOENIG MARK E'
p413
sg30
F0.0
sg31
F2271.0
sg32
F1248318.0
sg33
F0.0
ssg1
(g5
S'M\x00\x00\x00\x00\x00\x00\x00'
p414
tp415
Rp416
(dp417
g12
F224305.0
sg13
F0.0
sg14
F0.0
sg15
F2652612.0
sg16
F602671.0
sg17
F0.0
sg18
F800000.0
sg19
F0.0
sg20
F985032.0
sg21
F118134.0
sg22
F0.0
sg23
F0.0
sg24
F907502.0
sg25
F0.0
sg26
I01
sg27
F0.0
sg28
S'KOPPER MICHAEL J'
p418
sg30
F0.0
sg31
F0.0
sg32
F985032.0
sg33
F0.0
ssg1
(g5
S'N\x00\x00\x00\x00\x00\x00\x00'
p419
tp420
Rp421
(dp422
g12
F339288.0
sg13
F7259.0
sg14
F0.0
sg15
F10425757.0
sg16
F2035380.0
sg17
F0.0
sg18
F8000000.0
sg19
F0.0
sg20
F5167144.0
sg21
F49537.0
sg22
F4158995.0
sg23
F2585.0
sg24
F1552.0
sg25
F0.07273729163796666
sg26
I00
sg27
F0.15899419729206962
sg28
S'LAVORATO JOHN J'
p423
sg30
F0.0
sg31
F3962.0
sg32
F1008149.0
sg33
F0.0
ssg1
(g5
S'O\x00\x00\x00\x00\x00\x00\x00'
p424
tp425
Rp426
(dp427
g12
F1072321.0
sg13
F4273.0
sg14
F202911.0
sg15
F103559793.0
sg16
F3600000.0
sg17
F81525000.0
sg18
F7000000.0
sg19
F0.0
sg20
F49110078.0
sg21
F99832.0
sg22
F34348384.0
sg23
F36.0
sg24
F10359729.0
sg25
F0.028785396676807865
sg26
I01
sg27
F0.4444444444444444
sg28
S'LAY KENNETH L'
p428
sg30
F-300000.0
sg31
F2411.0
sg32
F14761694.0
sg33
F0.0
ssg1
(g5
S'P\x00\x00\x00\x00\x00\x00\x00'
p429
tp430
Rp431
(dp432
g12
F273746.0
sg13
F2822.0
sg14
F0.0
sg15
F2664228.0
sg16
F1387399.0
sg17
F0.0
sg18
F1000000.0
sg19
F0.0
sg20
F360528.0
sg21
F0.0
sg22
F0.0
sg23
F63.0
sg24
F3083.0
sg25
F0.02374202693125443
sg26
I00
sg27
F0.2222222222222222
sg28
S'LEFF DANIEL P'
p433
sg30
F0.0
sg31
F2672.0
sg32
F360528.0
sg33
F0.0
ssg1
(g5
S'Q\x00\x00\x00\x00\x00\x00\x00'
p434
tp435
Rp436
(dp437
g12
F0.0
sg13
F0.0
sg14
F0.0
sg15
F87492.0
sg16
F0.0
sg17
F0.0
sg18
F0.0
sg19
F0.0
sg20
F412878.0
sg21
F0.0
sg22
F412878.0
sg23
F0.0
sg24
F0.0
sg25
F0.0
sg26
I00
sg27
F0.0
sg28
S'LEMAISTRE CHARLES'
p438
sg30
F-25000.0
sg31
F0.0
sg32
F0.0
sg33
F112492.0
ssg1
(g5
S'R\x00\x00\x00\x00\x00\x00\x00'
p439
tp440
Rp441
(dp442
g12
F0.0
sg13
F952.0
sg14
F0.0
sg15
F0.0
sg16
F0.0
sg17
F0.0
sg18
F0.0
sg19
F0.0
sg20
F850477.0
sg21
F0.0
sg22
F850477.0
sg23
F26.0
sg24
F0.0
sg25
F0.01050420168067227
sg26
I00
sg27
F0.0
sg28
S'LEWIS RICHARD'
p443
sg30
F0.0
sg31
F739.0
sg32
F0.0
sg33
F0.0
ssg1
(g5
S'S\x00\x00\x00\x00\x00\x00\x00'
p444
tp445
Rp446
(dp447
g12
F236457.0
sg13
F0.0
sg14
F204075.0
sg15
F875889.0
sg16
F175000.0
sg17
F0.0
sg18
F200000.0
sg19
F0.0
sg20
F3064208.0
sg21
F57727.0
sg22
F2549361.0
sg23
F0.0
sg24
F2630.0
sg25
F0.0
sg26
I00
sg27
F0.0
sg28
S'LINDHOLM TOD A'
p448
sg30
F0.0
sg31
F0.0
sg32
F514847.0
sg33
F0.0
ssg1
(g5
S'U\x00\x00\x00\x00\x00\x00\x00'
p449
tp450
Rp451
(dp452
g12
F0.0
sg13
F0.0
sg14
F0.0
sg15
F0.0
sg16
F0.0
sg17
F0.0
sg18
F0.0
sg19
F-153686.0
sg20
F372205.0
sg21
F0.0
sg22
F372205.0
sg23
F0.0
sg24
F0.0
sg25
F0.0
sg26
I00
sg27
F0.0
sg28
S'LOWRY CHARLES P'
p453
sg30
F0.0
sg31
F0.0
sg32
F153686.0
sg33
F0.0
ssg1
(g5
S'V\x00\x00\x00\x00\x00\x00\x00'
p454
tp455
Rp456
(dp457
g12
F349487.0
sg13
F1522.0
sg14
F85430.0
sg15
F8407016.0
sg16
F5145434.0
sg17
F0.0
sg18
F0.0
sg19
F0.0
sg20
F2070306.0
sg21
F8211.0
sg22
F2070306.0
sg23
F230.0
sg24
F2818454.0
sg25
F0.005256241787122208
sg26
I00
sg27
F0.0
sg28
S'MARTIN AMANDA K'
p458
sg30
F0.0
sg31
F477.0
sg32
F0.0
sg33
F0.0
ssg1
(g5
S'W\x00\x00\x00\x00\x00\x00\x00'
p459
tp460
Rp461
(dp462
g12
F0.0
sg13
F1433.0
sg14
F0.0
sg15
F0.0
sg16
F0.0
sg17
F0.0
sg18
F0.0
sg19
F0.0
sg20
F758931.0
sg21
F0.0
sg22
F664375.0
sg23
F215.0
sg24
F0.0
sg25
F0.017445917655268667
sg26
I00
sg27
F0.009302325581395349
sg28
S'MCCARTY DANNY J'
p463
sg30
F0.0
sg31
F508.0
sg32
F94556.0
sg33
F0.0
ssg1
(g5
S'X\x00\x00\x00\x00\x00\x00\x00'
p464
tp465
Rp466
(dp467
g12
F263413.0
sg13
F1744.0
sg14
F0.0
sg15
F1318763.0
sg16
F0.0
sg17
F0.0
sg18
F900000.0
sg19
F0.0
sg20
F947861.0
sg21
F228763.0
sg22
F506765.0
sg23
F49.0
sg24
F51587.0
sg25
F0.02981651376146789
sg26
I00
sg27
F0.0
sg28
S'MCCLELLAN GEORGE'
p468
sg30
F-125000.0
sg31
F1469.0
sg32
F441096.0
sg33
F0.0
ssg1
(g5
S'Y\x00\x00\x00\x00\x00\x00\x00'
p469
tp470
Rp471
(dp472
g12
F365038.0
sg13
F3329.0
sg14
F0.0
sg15
F2101364.0
sg16
F554422.0
sg17
F0.0
sg18
F1100000.0
sg19
F0.0
sg20
F3101279.0
sg21
F81364.0
sg22
F1623010.0
sg23
F2742.0
sg24
F540.0
sg25
F0.02763592670471613
sg26
I00
sg27
F0.07075127644055434
sg28
S'MCCONNELL MICHAEL S'
p473
sg30
F0.0
sg31
F2189.0
sg32
F1478269.0
sg33
F0.0
ssg1
(g5
S'Z\x00\x00\x00\x00\x00\x00\x00'
p474
tp475
Rp476
(dp477
g12
F0.0
sg13
F894.0
sg14
F0.0
sg15
F0.0
sg16
F0.0
sg17
F0.0
sg18
F0.0
sg19
F0.0
sg20
F1691366.0
sg21
F0.0
sg22
F757301.0
sg23
F13.0
sg24
F0.0
sg25
F0.06040268456375839
sg26
I00
sg27
F0.07692307692307693
sg28
S'MCDONALD REBECCA'
p478
sg30
F0.0
sg31
F720.0
sg32
F934065.0
sg33
F0.0
ssg1
(g5
S'[\x00\x00\x00\x00\x00\x00\x00'
p479
tp480
Rp481
(dp482
g12
F370448.0
sg13
F2355.0
sg14
F0.0
sg15
F4099771.0
sg16
F694862.0
sg17
F0.0
sg18
F2600000.0
sg19
F0.0
sg20
F1662855.0
sg21
F137108.0
sg22
F1104054.0
sg23
F48.0
sg24
F297353.0
sg25
F0.024628450106157114
sg26
I00
sg27
F0.5416666666666666
sg28
S'MCMAHON JEFFREY'
p483
sg30
F0.0
sg31
F2228.0
sg32
F558801.0
sg33
F0.0
ssg1
(g5
S'\\\x00\x00\x00\x00\x00\x00\x00'
p484
tp485
Rp486
(dp487
g12
F0.0
sg13
F0.0
sg14
F0.0
sg15
F148.0
sg16
F0.0
sg17
F0.0
sg18
F0.0
sg19
F0.0
sg20
F0.0
sg21
F148.0
sg22
F0.0
sg23
F0.0
sg24
F0.0
sg25
F0.0
sg26
I00
sg27
F0.0
sg28
S'MENDELSOHN JOHN'
p488
sg30
F-103750.0
sg31
F0.0
sg32
F0.0
sg33
F103750.0
ssg1
(g5
S']\x00\x00\x00\x00\x00\x00\x00'
p489
tp490
Rp491
(dp492
g12
F365788.0
sg13
F807.0
sg14
F0.0
sg15
F1061827.0
sg16
F0.0
sg17
F0.0
sg18
F600000.0
sg19
F0.0
sg20
F585062.0
sg21
F94299.0
sg22
F0.0
sg23
F29.0
sg24
F1740.0
sg25
F0.04708798017348203
sg26
I00
sg27
F0.034482758620689655
sg28
S'METTS MARK'
p493
sg30
F0.0
sg31
F702.0
sg32
F585062.0
sg33
F0.0
ssg1
(g5
S'^\x00\x00\x00\x00\x00\x00\x00'
p494
tp495
Rp496
(dp497
g12
F0.0
sg13
F0.0
sg14
F0.0
sg15
F2151.0
sg16
F0.0
sg17
F0.0
sg18
F0.0
sg19
F0.0
sg20
F0.0
sg21
F2151.0
sg22
F0.0
sg23
F0.0
sg24
F0.0
sg25
F0.0
sg26
I00
sg27
F0.0
sg28
S'MEYER JEROME J'
p498
sg30
F-38346.0
sg31
F0.0
sg32
F0.0
sg33
F38346.0
ssg1
(g5
S'_\x00\x00\x00\x00\x00\x00\x00'
p499
tp500
Rp501
(dp502
g12
F0.0
sg13
F232.0
sg14
F1848227.0
sg15
F1848227.0
sg16
F0.0
sg17
F0.0
sg18
F0.0
sg19
F0.0
sg20
F955873.0
sg21
F0.0
sg22
F493489.0
sg23
F28.0
sg24
F0.0
sg25
F0.0
sg26
I00
sg27
F0.0
sg28
S'MEYER ROCKFORD G'
p503
sg30
F0.0
sg31
F22.0
sg32
F462384.0
sg33
F0.0
ssg1
(g5
S'`\x00\x00\x00\x00\x00\x00\x00'
p504
tp505
Rp506
(dp507
g12
F0.0
sg13
F672.0
sg14
F0.0
sg15
F0.0
sg16
F0.0
sg17
F0.0
sg18
F0.0
sg19
F0.0
sg20
F221141.0
sg21
F0.0
sg22
F59539.0
sg23
F19.0
sg24
F0.0
sg25
F0.0
sg26
I00
sg27
F0.0
sg28
S'MORAN MICHAEL P'
p508
sg30
F0.0
sg31
F127.0
sg32
F161602.0
sg33
F0.0
ssg1
(g5
S'a\x00\x00\x00\x00\x00\x00\x00'
p509
tp510
Rp511
(dp512
g12
F267093.0
sg13
F0.0
sg14
F0.0
sg15
F628522.0
sg16
F0.0
sg17
F0.0
sg18
F325000.0
sg19
F0.0
sg20
F208510.0
sg21
F35018.0
sg22
F0.0
sg23
F0.0
sg24
F1411.0
sg25
F0.0
sg26
I00
sg27
F0.0
sg28
S'MORDAUNT KRISTINA M'
p513
sg30
F0.0
sg31
F0.0
sg32
F208510.0
sg33
F0.0
ssg1
(g5
S'b\x00\x00\x00\x00\x00\x00\x00'
p514
tp515
Rp516
(dp517
g12
F251654.0
sg13
F136.0
sg14
F842924.0
sg15
F3202070.0
sg16
F1725545.0
sg17
F0.0
sg18
F1100000.0
sg19
F0.0
sg20
F1416848.0
sg21
F0.0
sg22
F1056320.0
sg23
F16.0
sg24
F947.0
sg25
F0.08823529411764706
sg26
I00
sg27
F0.0
sg28
S'MULLER MARK S'
p518
sg30
F-719000.0
sg31
F114.0
sg32
F360528.0
sg33
F0.0
ssg1
(g5
S'c\x00\x00\x00\x00\x00\x00\x00'
p519
tp520
Rp521
(dp522
g12
F229284.0
sg13
F2192.0
sg14
F0.0
sg15
F812194.0
sg16
F125000.0
sg17
F0.0
sg18
F400000.0
sg19
F0.0
sg20
F597461.0
sg21
F57580.0
sg22
F400478.0
sg23
F45.0
sg24
F330.0
sg25
F0.005018248175182482
sg26
I00
sg27
F0.044444444444444446
sg28
S'MURRAY JULIA H'
p523
sg30
F0.0
sg31
F395.0
sg32
F196983.0
sg33
F0.0
ssg1
(g5
S'd\x00\x00\x00\x00\x00\x00\x00'
p524
tp525
Rp526
(dp527
g12
F0.0
sg13
F0.0
sg14
F774401.0
sg15
F774401.0
sg16
F0.0
sg17
F0.0
sg18
F0.0
sg19
F-94556.0
sg20
F368705.0
sg21
F0.0
sg22
F0.0
sg23
F0.0
sg24
F0.0
sg25
F0.0
sg26
I00
sg27
F0.0
sg28
S'NOLES JAMES L'
p528
sg30
F0.0
sg31
F0.0
sg32
F463261.0
sg33
F0.0
ssg1
(g5
S'e\x00\x00\x00\x00\x00\x00\x00'
p529
tp530
Rp531
(dp532
g12
F329078.0
sg13
F1184.0
sg14
F77716.0
sg15
F1321557.0
sg16
F100000.0
sg17
F0.0
sg18
F750000.0
sg19
F0.0
sg20
F2606763.0
sg21
F63791.0
sg22
F1637034.0
sg23
F52.0
sg24
F972.0
sg25
F0.016891891891891893
sg26
I00
sg27
F0.28846153846153844
sg28
S'OLSON CINDY K'
p533
sg30
F0.0
sg31
F856.0
sg32
F969729.0
sg33
F0.0
ssg1
(g5
S'f\x00\x00\x00\x00\x00\x00\x00'
p534
tp535
Rp536
(dp537
g12
F94941.0
sg13
F0.0
sg14
F0.0
sg15
F249787.0
sg16
F135836.0
sg17
F0.0
sg18
F0.0
sg19
F0.0
sg20
F7307594.0
sg21
F18834.0
sg22
F5266578.0
sg23
F0.0
sg24
F176.0
sg25
F0.0
sg26
I00
sg27
F0.0
sg28
S'OVERDYKE JR JERE C'
p538
sg30
F0.0
sg31
F0.0
sg32
F2041016.0
sg33
F0.0
ssg1
(g5
S'g\x00\x00\x00\x00\x00\x00\x00'
p539
tp540
Rp541
(dp542
g12
F261879.0
sg13
F0.0
sg14
F0.0
sg15
F3123383.0
sg16
F0.0
sg17
F0.0
sg18
F1000000.0
sg19
F0.0
sg20
F23817930.0
sg21
F32047.0
sg22
F15364167.0
sg23
F0.0
sg24
F1829457.0
sg25
F0.0
sg26
I00
sg27
F0.0
sg28
S'PAI LOU L'
p543
sg30
F0.0
sg31
F0.0
sg32
F8453763.0
sg33
F0.0
ssg1
(g5
S'h\x00\x00\x00\x00\x00\x00\x00'
p544
tp545
Rp546
(dp547
g12
F0.0
sg13
F0.0
sg14
F0.0
sg15
F27942.0
sg16
F0.0
sg17
F0.0
sg18
F0.0
sg19
F0.0
sg20
F0.0
sg21
F27942.0
sg22
F0.0
sg23
F0.0
sg24
F0.0
sg25
F0.0
sg26
I00
sg27
F0.0
sg28
S'PEREIRA PAULO V. FERRAZ'
p548
sg30
F-101250.0
sg31
F0.0
sg32
F0.0
sg33
F101250.0
ssg1
(g5
S'i\x00\x00\x00\x00\x00\x00\x00'
p549
tp550
Rp551
(dp552
g12
F655037.0
sg13
F898.0
sg14
F0.0
sg15
F1386690.0
sg16
F0.0
sg17
F400000.0
sg18
F300000.0
sg19
F0.0
sg20
F28798.0
sg21
F31653.0
sg22
F28798.0
sg23
F67.0
sg24
F0.0
sg25
F0.0077951002227171495
sg26
I00
sg27
F0.0
sg28
S'PICKERING MARK R'
p553
sg30
F0.0
sg31
F728.0
sg32
F0.0
sg33
F0.0
ssg1
(g5
S'j\x00\x00\x00\x00\x00\x00\x00'
p554
tp555
Rp556
(dp557
g12
F197091.0
sg13
F1238.0
sg14
F1130036.0
sg15
F1737629.0
sg16
F0.0
sg17
F0.0
sg18
F400000.0
sg19
F-409554.0
sg20
F880290.0
sg21
F43057.0
sg22
F880290.0
sg23
F222.0
sg24
F778.0
sg25
F0.049273021001615507
sg26
I00
sg27
F0.21621621621621623
sg28
S'PIPER GREGORY F'
p558
sg30
F-33333.0
sg31
F742.0
sg32
F409554.0
sg33
F0.0
ssg1
(g5
S'k\x00\x00\x00\x00\x00\x00\x00'
p559
tp560
Rp561
(dp562
g12
F0.0
sg13
F58.0
sg14
F0.0
sg15
F0.0
sg16
F0.0
sg17
F0.0
sg18
F0.0
sg19
F0.0
sg20
F47304.0
sg21
F0.0
sg22
F0.0
sg23
F16.0
sg24
F0.0
sg25
F0.0
sg26
I00
sg27
F0.0625
sg28
S'PIRO JIM'
p563
sg30
F0.0
sg31
F3.0
sg32
F47304.0
sg33
F0.0
ssg1
(g5
S'l\x00\x00\x00\x00\x00\x00\x00'
p564
tp565
Rp566
(dp567
g12
F0.0
sg13
F653.0
sg14
F0.0
sg15
F0.0
sg16
F0.0
sg17
F0.0
sg18
F0.0
sg19
F0.0
sg20
F0.0
sg21
F0.0
sg22
F0.0
sg23
F26.0
sg24
F0.0
sg25
F0.0
sg26
I00
sg27
F0.0
sg28
S'POWERS WILLIAM'
p568
sg30
F-17500.0
sg31
F12.0
sg32
F0.0
sg33
F17500.0
ssg1
(g5
S'm\x00\x00\x00\x00\x00\x00\x00'
p569
tp570
Rp571
(dp572
g12
F0.0
sg13
F0.0
sg14
F564348.0
sg15
F564348.0
sg16
F0.0
sg17
F0.0
sg18
F0.0
sg19
F0.0
sg20
F1095040.0
sg21
F0.0
sg22
F886231.0
sg23
F0.0
sg24
F0.0
sg25
F0.0
sg26
I00
sg27
F0.0
sg28
S'PRENTICE JAMES'
p573
sg30
F0.0
sg31
F0.0
sg32
F208809.0
sg33
F0.0
ssg1
(g5
S'n\x00\x00\x00\x00\x00\x00\x00'
p574
tp575
Rp576
(dp577
g12
F96840.0
sg13
F1671.0
sg14
F0.0
sg15
F111529.0
sg16
F0.0
sg17
F0.0
sg18
F0.0
sg19
F0.0
sg20
F7890324.0
sg21
F14689.0
sg22
F7509039.0
sg23
F221.0
sg24
F0.0
sg25
F0.12208258527827648
sg26
I00
sg27
F0.22171945701357465
sg28
S'REDMOND BRIAN L'
p578
sg30
F0.0
sg31
F1063.0
sg32
F381285.0
sg33
F0.0
ssg1
(g5
S'o\x00\x00\x00\x00\x00\x00\x00'
p579
tp580
Rp581
(dp582
g12
F76399.0
sg13
F0.0
sg14
F51365.0
sg15
F394475.0
sg16
F156250.0
sg17
F0.0
sg18
F100000.0
sg19
F-140264.0
sg20
F4221891.0
sg21
F8409.0
sg22
F4160672.0
sg23
F0.0
sg24
F202052.0
sg25
F0.0
sg26
I00
sg27
F0.0
sg28
S'REYNOLDS LAWRENCE'
p583
sg30
F-200000.0
sg31
F0.0
sg32
F201483.0
sg33
F0.0
ssg1
(g5
S'p\x00\x00\x00\x00\x00\x00\x00'
p584
tp585
Rp586
(dp587
g12
F420636.0
sg13
F905.0
sg14
F0.0
sg15
F505050.0
sg16
F1617011.0
sg17
F0.0
sg18
F1750000.0
sg19
F0.0
sg20
F22542539.0
sg21
F46950.0
sg22
F19794175.0
sg23
F18.0
sg24
F174839.0
sg25
F0.04640883977900553
sg26
I01
sg27
F0.2222222222222222
sg28
S'RICE KENNETH D'
p588
sg30
F-3504386.0
sg31
F864.0
sg32
F2748364.0
sg33
F0.0
ssg1
(g5
S'q\x00\x00\x00\x00\x00\x00\x00'
p589
tp590
Rp591
(dp592
g12
F249201.0
sg13
F1328.0
sg14
F214678.0
sg15
F1099100.0
sg16
F0.0
sg17
F0.0
sg18
F700000.0
sg19
F0.0
sg20
F1918887.0
sg21
F33271.0
sg22
F1635238.0
sg23
F82.0
sg24
F1950.0
sg25
F0.02635542168674699
sg26
I01
sg27
F0.5853658536585366
sg28
S'RIEKER PAULA H'
p593
sg30
F-100000.0
sg31
F1258.0
sg32
F283649.0
sg33
F0.0
ssg1
(g5
S'r\x00\x00\x00\x00\x00\x00\x00'
p594
tp595
Rp596
(dp597
g12
F0.0
sg13
F0.0
sg14
F0.0
sg15
F3750.0
sg16
F0.0
sg17
F0.0
sg18
F0.0
sg19
F0.0
sg20
F0.0
sg21
F0.0
sg22
F0.0
sg23
F0.0
sg24
F0.0
sg25
F0.0
sg26
I00
sg27
F0.0
sg28
S'SAVAGE FRANK'
p598
sg30
F-121284.0
sg31
F0.0
sg32
F0.0
sg33
F125034.0
ssg1
(g5
S's\x00\x00\x00\x00\x00\x00\x00'
p599
tp600
Rp601
(dp602
g12
F0.0
sg13
F0.0
sg14
F0.0
sg15
F0.0
sg16
F0.0
sg17
F0.0
sg18
F0.0
sg19
F0.0
sg20
F759557.0
sg21
F0.0
sg22
F759557.0
sg23
F0.0
sg24
F0.0
sg25
F0.0
sg26
I00
sg27
F0.0
sg28
S'SCRIMSHAW MATTHEW'
p603
sg30
F0.0
sg31
F0.0
sg32
F0.0
sg33
F0.0
ssg1
(g5
S't\x00\x00\x00\x00\x00\x00\x00'
p604
tp605
Rp606
(dp607
g12
F304110.0
sg13
F3221.0
sg14
F0.0
sg15
F3038702.0
sg16
F554422.0
sg17
F0.0
sg18
F2000000.0
sg19
F0.0
sg20
F2072035.0
sg21
F178979.0
sg22
F1441898.0
sg23
F2681.0
sg24
F1191.0
sg25
F0.029183483390251473
sg26
I00
sg27
F0.030958597538232
sg28
S'SHANKMAN JEFFREY A'
p608
sg30
F0.0
sg31
F1730.0
sg32
F630137.0
sg33
F0.0
ssg1
(g5
S'u\x00\x00\x00\x00\x00\x00\x00'
p609
tp610
Rp611
(dp612
g12
F269076.0
sg13
F15149.0
sg14
F0.0
sg15
F1057548.0
sg16
F0.0
sg17
F0.0
sg18
F650000.0
sg19
F0.0
sg20
F987001.0
sg21
F137767.0
sg22
F607837.0
sg23
F1215.0
sg24
F705.0
sg25
F0.0048848108786058485
sg26
I00
sg27
F0.053497942386831275
sg28
S'SHAPIRO RICHARD S'
p613
sg30
F0.0
sg31
F4527.0
sg32
F379164.0
sg33
F0.0
ssg1
(g5
S'v\x00\x00\x00\x00\x00\x00\x00'
p614
tp615
Rp616
(dp617
g12
F248146.0
sg13
F3136.0
sg14
F187469.0
sg15
F1576511.0
sg16
F422158.0
sg17
F0.0
sg18
F600000.0
sg19
F0.0
sg20
F494136.0
sg21
F116337.0
sg22
F281073.0
sg23
F136.0
sg24
F2401.0
sg25
F0.007653061224489796
sg26
I00
sg27
F0.04411764705882353
sg28
S'SHARP VICTORIA T'
p618
sg30
F0.0
sg31
F2477.0
sg32
F213063.0
sg33
F0.0
ssg1
(g5
S'w\x00\x00\x00\x00\x00\x00\x00'
p619
tp620
Rp621
(dp622
g12
F211844.0
sg13
F225.0
sg14
F0.0
sg15
F2003885.0
sg16
F0.0
sg17
F0.0
sg18
F200000.0
sg19
F0.0
sg20
F2493616.0
sg21
F22884.0
sg22
F1624396.0
sg23
F39.0
sg24
F1573324.0
sg25
F0.057777777777777775
sg26
I01
sg27
F0.358974358974359
sg28
S'SHELBY REX'
p623
sg30
F-4167.0
sg31
F91.0
sg32
F869220.0
sg33
F0.0
ssg1
(g5
S'x\x00\x00\x00\x00\x00\x00\x00'
p624
tp625
Rp626
(dp627
g12
F0.0
sg13
F613.0
sg14
F0.0
sg15
F0.0
sg16
F0.0
sg17
F0.0
sg18
F0.0
sg19
F0.0
sg20
F1832468.0
sg21
F0.0
sg22
F1426469.0
sg23
F25.0
sg24
F0.0
sg25
F0.0636215334420881
sg26
I00
sg27
F0.72
sg28
S'SHERRICK JEFFREY B'
p628
sg30
F0.0
sg31
F583.0
sg32
F405999.0
sg33
F0.0
ssg1
(g5
S'y\x00\x00\x00\x00\x00\x00\x00'
p629
tp630
Rp631
(dp632
g12
F428780.0
sg13
F3187.0
sg14
F0.0
sg15
F4335388.0
sg16
F554422.0
sg17
F0.0
sg18
F1500000.0
sg19
F0.0
sg20
F3128982.0
sg21
F0.0
sg22
F1835558.0
sg23
F92.0
sg24
F1852186.0
sg25
F0.008785691873235017
sg26
I00
sg27
F0.25
sg28
S'SHERRIFF JOHN R'
p633
sg30
F0.0
sg31
F2103.0
sg32
F1293424.0
sg33
F0.0
ssg1
(g5
S'z\x00\x00\x00\x00\x00\x00\x00'
p634
tp635
Rp636
(dp637
g12
F1111258.0
sg13
F3627.0
sg14
F0.0
sg15
F8682716.0
sg16
F1920000.0
sg17
F0.0
sg18
F5600000.0
sg19
F0.0
sg20
F26093672.0
sg21
F29336.0
sg22
F19250000.0
sg23
F108.0
sg24
F22122.0
sg25
F0.0242624758753791
sg26
I01
sg27
F0.2777777777777778
sg28
S'SKILLING JEFFREY K'
p638
sg30
F0.0
sg31
F2042.0
sg32
F6843672.0
sg33
F0.0
ssg1
(g5
S'{\x00\x00\x00\x00\x00\x00\x00'
p639
tp640
Rp641
(dp642
g12
F239502.0
sg13
F0.0
sg14
F0.0
sg15
F1112087.0
sg16
F0.0
sg17
F0.0
sg18
F500000.0
sg19
F0.0
sg20
F511734.0
sg21
F16514.0
sg22
F0.0
sg23
F0.0
sg24
F356071.0
sg25
F0.0
sg26
I00
sg27
F0.0
sg28
S'STABLER FRANK'
p643
sg30
F0.0
sg31
F0.0
sg32
F511734.0
sg33
F0.0
ssg1
(g5
S'|\x00\x00\x00\x00\x00\x00\x00'
p644
tp645
Rp646
(dp647
g12
F162779.0
sg13
F0.0
sg14
F181993.0
sg15
F999356.0
sg16
F554422.0
sg17
F0.0
sg18
F100000.0
sg19
F0.0
sg20
F1362375.0
sg21
F0.0
sg22
F1362375.0
sg23
F0.0
sg24
F162.0
sg25
F0.0
sg26
I00
sg27
F0.0
sg28
S'SULLIVAN-SHAKLOVITZ COLLEEN'
p648
sg30
F0.0
sg31
F0.0
sg32
F0.0
sg33
F0.0
ssg1
(g5
S'}\x00\x00\x00\x00\x00\x00\x00'
p649
tp650
Rp651
(dp652
g12
F257486.0
sg13
F2647.0
sg14
F0.0
sg15
F1545059.0
sg16
F476451.0
sg17
F0.0
sg18
F700000.0
sg19
F0.0
sg20
F698920.0
sg21
F0.0
sg22
F0.0
sg23
F38.0
sg24
F111122.0
sg25
F0.013978088401964487
sg26
I00
sg27
F0.34210526315789475
sg28
S'SUNDE MARTIN'
p653
sg30
F0.0
sg31
F2565.0
sg32
F698920.0
sg33
F0.0
ssg1
(g5
S'~\x00\x00\x00\x00\x00\x00\x00'
p654
tp655
Rp656
(dp657
g12
F265214.0
sg13
F533.0
sg14
F227449.0
sg15
F1092663.0
sg16
F0.0
sg17
F0.0
sg18
F600000.0
sg19
F0.0
sg20
F3745048.0
sg21
F0.0
sg22
F3181250.0
sg23
F29.0
sg24
F0.0
sg25
F0.0
sg26
I00
sg27
F0.0
sg28
S'TAYLOR MITCHELL S'
p658
sg30
F0.0
sg31
F300.0
sg32
F563798.0
sg33
F0.0
ssg1
(g5
S'\x80\x00\x00\x00\x00\x00\x00\x00'
p659
tp660
Rp661
(dp662
g12
F222093.0
sg13
F266.0
sg14
F16586.0
sg15
F911453.0
sg16
F200000.0
sg17
F0.0
sg18
F0.0
sg19
F0.0
sg20
F4817796.0
sg21
F46145.0
sg22
F4452476.0
sg23
F41.0
sg24
F426629.0
sg25
F0.0
sg26
I00
sg27
F0.0
sg28
S'THORN TERENCE H'
p663
sg30
F0.0
sg31
F73.0
sg32
F365320.0
sg33
F0.0
ssg1
(g5
S'\x81\x00\x00\x00\x00\x00\x00\x00'
p664
tp665
Rp666
(dp667
g12
F247338.0
sg13
F460.0
sg14
F0.0
sg15
F399393.0
sg16
F275000.0
sg17
F0.0
sg18
F300000.0
sg19
F0.0
sg20
F1168042.0
sg21
F0.0
sg22
F591250.0
sg23
F19.0
sg24
F152055.0
sg25
F0.021739130434782608
sg26
I00
sg27
F0.5789473684210527
sg28
S'TILNEY ELIZABETH A'
p668
sg30
F-575000.0
sg31
F379.0
sg32
F576792.0
sg33
F0.0
ssg1
(g5
S'\x83\x00\x00\x00\x00\x00\x00\x00'
p669
tp670
Rp671
(dp672
g12
F288589.0
sg13
F111.0
sg14
F0.0
sg15
F1130461.0
sg16
F0.0
sg17
F0.0
sg18
F788750.0
sg19
F0.0
sg20
F0.0
sg21
F53122.0
sg22
F0.0
sg23
F18.0
sg24
F0.0
sg25
F0.10810810810810811
sg26
I00
sg27
F0.0
sg28
S'UMANOFF ADAM S'
p673
sg30
F0.0
sg31
F41.0
sg32
F0.0
sg33
F0.0
ssg1
(g5
S'\x84\x00\x00\x00\x00\x00\x00\x00'
p674
tp675
Rp676
(dp677
g12
F0.0
sg13
F0.0
sg14
F0.0
sg15
F228656.0
sg16
F0.0
sg17
F0.0
sg18
F0.0
sg19
F0.0
sg20
F0.0
sg21
F228656.0
sg22
F0.0
sg23
F0.0
sg24
F0.0
sg25
F0.0
sg26
I00
sg27
F0.0
sg28
S'URQUHART JOHN A'
p678
sg30
F-36666.0
sg31
F0.0
sg32
F0.0
sg33
F36666.0
ssg1
(g5
S'\x85\x00\x00\x00\x00\x00\x00\x00'
p679
tp680
Rp681
(dp682
g12
F0.0
sg13
F0.0
sg14
F0.0
sg15
F213071.0
sg16
F0.0
sg17
F0.0
sg18
F0.0
sg19
F0.0
sg20
F0.0
sg21
F103773.0
sg22
F0.0
sg23
F0.0
sg24
F0.0
sg25
F0.0
sg26
I00
sg27
F0.0
sg28
S'WAKEHAM JOHN'
p683
sg30
F0.0
sg31
F0.0
sg32
F0.0
sg33
F109298.0
ssg1
(g5
S'\x86\x00\x00\x00\x00\x00\x00\x00'
p684
tp685
Rp686
(dp687
g12
F357091.0
sg13
F671.0
sg14
F0.0
sg15
F1798780.0
sg16
F540751.0
sg17
F0.0
sg18
F850000.0
sg19
F0.0
sg20
F5898997.0
sg21
F50936.0
sg22
F4346544.0
sg23
F146.0
sg24
F2.0
sg25
F0.02533532041728763
sg26
I00
sg27
F0.0
sg28
S'WALLS JR ROBERT H'
p688
sg30
F0.0
sg31
F215.0
sg32
F1552453.0
sg33
F0.0
ssg1
(g5
S'\x87\x00\x00\x00\x00\x00\x00\x00'
p689
tp690
Rp691
(dp692
g12
F0.0
sg13
F0.0
sg14
F53625.0
sg15
F87410.0
sg16
F0.0
sg17
F0.0
sg18
F0.0
sg19
F0.0
sg20
F1030329.0
sg21
F33785.0
sg22
F1030329.0
sg23
F0.0
sg24
F0.0
sg25
F0.0
sg26
I00
sg27
F0.0
sg28
S'WALTERS GARETH W'
p693
sg30
F0.0
sg31
F0.0
sg32
F0.0
sg33
F0.0
ssg1
(g5
S'\x88\x00\x00\x00\x00\x00\x00\x00'
p694
tp695
Rp696
(dp697
g12
F259996.0
sg13
F400.0
sg14
F831299.0
sg15
F1034395.0
sg16
F200000.0
sg17
F0.0
sg18
F325000.0
sg19
F0.0
sg20
F2056427.0
sg21
F0.0
sg22
F1668260.0
sg23
F30.0
sg24
F1425.0
sg25
F0.055
sg26
I00
sg27
F0.23333333333333334
sg28
S'WASAFF GEORGE'
p698
sg30
F-583325.0
sg31
F337.0
sg32
F388167.0
sg33
F0.0
ssg1
(g5
S'\x89\x00\x00\x00\x00\x00\x00\x00'
p699
tp700
Rp701
(dp702
g12
F63744.0
sg13
F0.0
sg14
F0.0
sg15
F762135.0
sg16
F256191.0
sg17
F0.0
sg18
F0.0
sg19
F0.0
sg20
F384930.0
sg21
F51870.0
sg22
F0.0
sg23
F0.0
sg24
F401130.0
sg25
F0.0
sg26
I00
sg27
F0.0
sg28
S'WESTFAHL RICHARD K'
p703
sg30
F-10800.0
sg31
F0.0
sg32
F384930.0
sg33
F0.0
ssg1
(g5
S'\x8a\x00\x00\x00\x00\x00\x00\x00'
p704
tp705
Rp706
(dp707
g12
F0.0
sg13
F0.0
sg14
F0.0
sg15
F0.0
sg16
F0.0
sg17
F0.0
sg18
F0.0
sg19
F0.0
sg20
F98718.0
sg21
F0.0
sg22
F98718.0
sg23
F0.0
sg24
F0.0
sg25
F0.0
sg26
I00
sg27
F0.0
sg28
S'WHALEY DAVID A'
p708
sg30
F0.0
sg31
F0.0
sg32
F0.0
sg33
F0.0
ssg1
(g5
S'\x8b\x00\x00\x00\x00\x00\x00\x00'
p709
tp710
Rp711
(dp712
g12
F510364.0
sg13
F6019.0
sg14
F0.0
sg15
F4677574.0
sg16
F808346.0
sg17
F0.0
sg18
F3000000.0
sg19
F0.0
sg20
F6079137.0
sg21
F57838.0
sg22
F3282960.0
sg23
F556.0
sg24
F301026.0
sg25
F0.03090214321315833
sg26
I00
sg27
F0.04316546762589928
sg28
S'WHALLEY LAWRENCE G'
p713
sg30
F0.0
sg31
F3920.0
sg32
F2796177.0
sg33
F0.0
ssg1
(g5
S'\x8c\x00\x00\x00\x00\x00\x00\x00'
p714
tp715
Rp716
(dp717
g12
F317543.0
sg13
F0.0
sg14
F0.0
sg15
F1934359.0
sg16
F0.0
sg17
F0.0
sg18
F450000.0
sg19
F0.0
sg20
F15144123.0
sg21
F81353.0
sg22
F1297049.0
sg23
F0.0
sg24
F1085463.0
sg25
F0.0
sg26
I00
sg27
F0.0
sg28
S'WHITE JR THOMAS E'
p718
sg30
F0.0
sg31
F0.0
sg32
F13847074.0
sg33
F0.0
ssg1
(g5
S'\x8d\x00\x00\x00\x00\x00\x00\x00'
p719
tp720
Rp721
(dp722
g12
F0.0
sg13
F0.0
sg14
F0.0
sg15
F84992.0
sg16
F0.0
sg17
F0.0
sg18
F0.0
sg19
F0.0
sg20
F0.0
sg21
F1413.0
sg22
F0.0
sg23
F0.0
sg24
F0.0
sg25
F0.0
sg26
I00
sg27
F0.0
sg28
S'WINOKUR JR. HERBERT S'
p723
sg30
F-25000.0
sg31
F0.0
sg32
F0.0
sg33
F108579.0
ssg1
(g5
S'\x8e\x00\x00\x00\x00\x00\x00\x00'
p724
tp725
Rp726
(dp727
g12
F0.0
sg13
F0.0
sg14
F0.0
sg15
F189583.0
sg16
F0.0
sg17
F0.0
sg18
F0.0
sg19
F0.0
sg20
F0.0
sg21
F0.0
sg22
F0.0
sg23
F0.0
sg24
F189583.0
sg25
F0.0
sg26
I00
sg27
F0.0
sg28
S'WODRASKA JOHN'
p728
sg30
F0.0
sg31
F0.0
sg32
F0.0
sg33
F0.0
ssg1
(g5
S'\x8f\x00\x00\x00\x00\x00\x00\x00'
p729
tp730
Rp731
(dp732
g12
F0.0
sg13
F0.0
sg14
F0.0
sg15
F0.0
sg16
F0.0
sg17
F0.0
sg18
F0.0
sg19
F0.0
sg20
F139130.0
sg21
F0.0
sg22
F139130.0
sg23
F0.0
sg24
F0.0
sg25
F0.0
sg26
I00
sg27
F0.0
sg28
S'WROBEL BRUCE'
p733
sg30
F0.0
sg31
F0.0
sg32
F0.0
sg33
F0.0
ssg1
(g5
S'\x90\x00\x00\x00\x00\x00\x00\x00'
p734
tp735
Rp736
(dp737
g12
F158403.0
sg13
F0.0
sg14
F0.0
sg15
F360300.0
sg16
F0.0
sg17
F0.0
sg18
F0.0
sg19
F0.0
sg20
F11884758.0
sg21
F53947.0
sg22
F8308552.0
sg23
F0.0
sg24
F147950.0
sg25
F0.0
sg26
I01
sg27
F0.0
sg28
S'YEAGER F SCOTT'
p738
sg30
F0.0
sg31
F0.0
sg32
F3576206.0
sg33
F0.0
ssg1
(g5
S'\x91\x00\x00\x00\x00\x00\x00\x00'
p739
tp740
Rp741
(dp742
g12
F0.0
sg13
F0.0
sg14
F0.0
sg15
F55097.0
sg16
F0.0
sg17
F0.0
sg18
F0.0
sg19
F0.0
sg20
F192758.0
sg21
F55097.0
sg22
F192758.0
sg23
F0.0
sg24
F0.0
sg25
F0.0
sg26
I00
sg27
F0.0
sg28
S'YEAP SOON'
p743
sg30
F0.0
sg31
F0.0
sg32
F0.0
sg33
F0.0
ss.